target datalayout = "e-m:e-p270:32:32-p271:32:32-p272:64:64-i64:64-i128:128-f80:128-n8:16:32:64-S128"
target triple = "x86_64-pc-linux-gnu"

; Function Attrs: nounwind uwtable
define internal i64 @mc_swap64(i64 noundef %0) #0 {
  %2 = alloca i64, align 8
  %3 = alloca i64, align 8
  %4 = alloca i32, align 4
  store i64 %0, ptr %2, align 8, !tbaa !17
  call void @llvm.lifetime.start.p0(i64 8, ptr %3) #8
  store i64 0, ptr %3, align 8, !tbaa !17
  call void @llvm.lifetime.start.p0(i64 4, ptr %4) #8
  store i32 0, ptr %4, align 4, !tbaa !9
  store i32 0, ptr %4, align 4, !tbaa !9
  br label %5

5:                                                ; preds = %16, %1
  %6 = load i32, ptr %4, align 4, !tbaa !9
  %7 = icmp slt i32 %6, 8
  br i1 %7, label %8, label %19

8:                                                ; preds = %5
  %9 = load i64, ptr %3, align 8, !tbaa !17
  %10 = shl i64 %9, 8
  %11 = load i64, ptr %2, align 8, !tbaa !17
  %12 = and i64 %11, 255
  %13 = or i64 %10, %12
  store i64 %13, ptr %3, align 8, !tbaa !17
  %14 = load i64, ptr %2, align 8, !tbaa !17
  %15 = lshr i64 %14, 8
  store i64 %15, ptr %2, align 8, !tbaa !17
  br label %16

16:                                               ; preds = %8
  %17 = load i32, ptr %4, align 4, !tbaa !9
  %18 = add nsw i32 %17, 1
  store i32 %18, ptr %4, align 4, !tbaa !9
  br label %5, !llvm.loop !34

19:                                               ; preds = %5
  %20 = load i64, ptr %3, align 8, !tbaa !17
  call void @llvm.lifetime.end.p0(i64 4, ptr %4) #8
  call void @llvm.lifetime.end.p0(i64 8, ptr %3) #8
  ret i64 %20
}

; Function Attrs: nounwind uwtable
define dso_local i64 @ntohll(i64 noundef %0) #0 {
  %2 = alloca i64, align 8
  store i64 %0, ptr %2, align 8, !tbaa !17
  %3 = load i64, ptr %2, align 8, !tbaa !17
  %4 = call i64 @mc_swap64(i64 noundef %3)
  ret i64 %4
}