; Function Attrs: nofree norecurse nosync nounwind memory(none) uwtable
define dso_local i64 @ntohll(i64 noundef %0) local_unnamed_addr #13 {
  br label %2

2:                                                ; preds = %2, %1
  %.010.i = phi i32 [ 0, %1 ], [ %7, %2 ]
  %.069.i = phi i64 [ 0, %1 ], [ %5, %2 ]
  %.078.i = phi i64 [ %0, %1 ], [ %6, %2 ]
  %3 = shl i64 %.069.i, 8
  %4 = and i64 %.078.i, 255
  %5 = or disjoint i64 %4, %3
  %6 = lshr i64 %.078.i, 8
  %7 = add nuw nsw i32 %.010.i, 1
  %exitcond.not.i = icmp eq i32 %7, 8
  br i1 %exitcond.not.i, label %mc_swap64.exit, label %2, !llvm.loop !25

mc_swap64.exit:                                   ; preds = %2
  ret i64 %5
}